; Function Attrs: mustprogress nounwind uwtable
define dso_local void @_ZN4i18n12phonenumbers11UnicodeTextD2Ev(ptr noundef nonnull readonly align 8 captures(none) dereferenceable(24) %0) unnamed_addr #6 align 2 {
  %2 = getelementptr inbounds nuw i8, ptr %0, i64 16
  %3 = load i8, ptr %2, align 8, !tbaa !17, !range !18, !noundef !19
  %4 = trunc nuw i8 %3 to i1
  br i1 %4, label %5, label %_ZN4i18n12phonenumbers11UnicodeText4ReprD2Ev.exit

5:                                                ; preds = %1
  %6 = load ptr, ptr %0, align 8, !tbaa !20
  %7 = icmp eq ptr %6, null
  br i1 %7, label %_ZN4i18n12phonenumbers11UnicodeText4ReprD2Ev.exit, label %8

8:                                                ; preds = %5
  tail call void @_ZdaPv(ptr noundef nonnull %6) #26
  br label %_ZN4i18n12phonenumbers11UnicodeText4ReprD2Ev.exit

_ZN4i18n12phonenumbers11UnicodeText4ReprD2Ev.exit: ; preds = %1, %5, %8
  ret void
}